; Function Attrs: nounwind uwtable
define ptr @l_Lean_Core_instMonadInfoTreeCoreM___lambda__1(ptr readnone captures(none) %0, ptr noundef %1, ptr noundef %2) local_unnamed_addr #1 {
  %4 = tail call ptr @lean_st_ref_get(ptr noundef %1, ptr noundef %2) #7
  %.val = load i32, ptr %4, align 4, !tbaa !4
  %5 = icmp eq i32 %.val, 1
  %6 = getelementptr inbounds nuw i8, ptr %4, i64 8
  %7 = load ptr, ptr %6, align 8, !tbaa !9
  br i1 %5, label %8, label %28

8:                                                ; preds = %3
  %9 = getelementptr inbounds nuw i8, ptr %7, i64 64
  %10 = load ptr, ptr %9, align 8, !tbaa !9
  %11 = ptrtoint ptr %10 to i64
  %12 = and i64 %11, 1
  %.not46 = icmp eq i64 %12, 0
  br i1 %.not46, label %13, label %lean_inc.exit28

13:                                               ; preds = %8
  %.val.i = load i32, ptr %10, align 4, !tbaa !4
  %14 = icmp sgt i32 %.val.i, 0
  br i1 %14, label %15, label %17, !prof !11

15:                                               ; preds = %13
  %16 = add nuw i32 %.val.i, 1
  store i32 %16, ptr %10, align 4, !tbaa !4
  br label %lean_inc.exit28

17:                                               ; preds = %13
  %.not.i33 = icmp eq i32 %.val.i, 0
  br i1 %.not.i33, label %lean_inc.exit28, label %18

18:                                               ; preds = %17
  tail call void @lean_inc_ref_cold(ptr noundef nonnull %10) #7
  br label %lean_inc.exit28

lean_inc.exit28:                                  ; preds = %18, %17, %15, %8
  %19 = ptrtoint ptr %7 to i64
  %20 = and i64 %19, 1
  %.not47 = icmp eq i64 %20, 0
  br i1 %.not47, label %21, label %lean_dec.exit25

21:                                               ; preds = %lean_inc.exit28
  %22 = load i32, ptr %7, align 4, !tbaa !4
  %23 = icmp sgt i32 %22, 1
  br i1 %23, label %24, label %26, !prof !11

24:                                               ; preds = %21
  %25 = add nsw i32 %22, -1
  store i32 %25, ptr %7, align 4, !tbaa !4
  br label %lean_dec.exit25

26:                                               ; preds = %21
  %.not.i = icmp eq i32 %22, 0
  br i1 %.not.i, label %lean_dec.exit25, label %27

27:                                               ; preds = %26
  tail call void @lean_dec_ref_cold(ptr noundef nonnull %7) #7
  br label %lean_dec.exit25

lean_dec.exit25:                                  ; preds = %27, %26, %24, %lean_inc.exit28
  store ptr %10, ptr %6, align 8, !tbaa !9
  br label %79

28:                                               ; preds = %3
  %29 = getelementptr inbounds nuw i8, ptr %4, i64 16
  %30 = load ptr, ptr %29, align 8, !tbaa !9
  %31 = ptrtoint ptr %30 to i64
  %32 = and i64 %31, 1
  %.not = icmp eq i64 %32, 0
  br i1 %.not, label %33, label %lean_inc.exit27

33:                                               ; preds = %28
  %.val.i34 = load i32, ptr %30, align 4, !tbaa !4
  %34 = icmp sgt i32 %.val.i34, 0
  br i1 %34, label %35, label %37, !prof !11

35:                                               ; preds = %33
  %36 = add nuw i32 %.val.i34, 1
  store i32 %36, ptr %30, align 4, !tbaa !4
  br label %lean_inc.exit27

37:                                               ; preds = %33
  %.not.i35 = icmp eq i32 %.val.i34, 0
  br i1 %.not.i35, label %lean_inc.exit27, label %38

38:                                               ; preds = %37
  tail call void @lean_inc_ref_cold(ptr noundef nonnull %30) #7
  br label %lean_inc.exit27

lean_inc.exit27:                                  ; preds = %38, %37, %35, %28
  %39 = ptrtoint ptr %7 to i64
  %40 = and i64 %39, 1
  %.not43 = icmp eq i64 %40, 0
  br i1 %.not43, label %41, label %lean_inc.exit26

41:                                               ; preds = %lean_inc.exit27
  %.val.i37 = load i32, ptr %7, align 4, !tbaa !4
  %42 = icmp sgt i32 %.val.i37, 0
  br i1 %42, label %43, label %45, !prof !11

43:                                               ; preds = %41
  %44 = add nuw i32 %.val.i37, 1
  store i32 %44, ptr %7, align 4, !tbaa !4
  br label %lean_inc.exit26

45:                                               ; preds = %41
  %.not.i38 = icmp eq i32 %.val.i37, 0
  br i1 %.not.i38, label %lean_inc.exit26, label %46

46:                                               ; preds = %45
  tail call void @lean_inc_ref_cold(ptr noundef nonnull %7) #7
  br label %lean_inc.exit26

lean_inc.exit26:                                  ; preds = %46, %45, %43, %lean_inc.exit27
  %47 = ptrtoint ptr %4 to i64
  %48 = and i64 %47, 1
  %.not44 = icmp eq i64 %48, 0
  br i1 %.not44, label %49, label %lean_dec.exit24

49:                                               ; preds = %lean_inc.exit26
  %50 = load i32, ptr %4, align 4, !tbaa !4
  %51 = icmp sgt i32 %50, 1
  br i1 %51, label %52, label %54, !prof !11

52:                                               ; preds = %49
  %53 = add nsw i32 %50, -1
  store i32 %53, ptr %4, align 4, !tbaa !4
  br label %lean_dec.exit24

54:                                               ; preds = %49
  %.not.i29 = icmp eq i32 %50, 0
  br i1 %.not.i29, label %lean_dec.exit24, label %55

55:                                               ; preds = %54
  tail call void @lean_dec_ref_cold(ptr noundef nonnull %4) #7
  br label %lean_dec.exit24

lean_dec.exit24:                                  ; preds = %55, %54, %52, %lean_inc.exit26
  %56 = getelementptr inbounds nuw i8, ptr %7, i64 64
  %57 = load ptr, ptr %56, align 8, !tbaa !9
  %58 = ptrtoint ptr %57 to i64
  %59 = and i64 %58, 1
  %.not45 = icmp eq i64 %59, 0
  br i1 %.not45, label %60, label %lean_inc.exit

60:                                               ; preds = %lean_dec.exit24
  %.val.i40 = load i32, ptr %57, align 4, !tbaa !4
  %61 = icmp sgt i32 %.val.i40, 0
  br i1 %61, label %62, label %64, !prof !11

62:                                               ; preds = %60
  %63 = add nuw i32 %.val.i40, 1
  store i32 %63, ptr %57, align 4, !tbaa !4
  br label %lean_inc.exit

64:                                               ; preds = %60
  %.not.i41 = icmp eq i32 %.val.i40, 0
  br i1 %.not.i41, label %lean_inc.exit, label %65

65:                                               ; preds = %64
  tail call void @lean_inc_ref_cold(ptr noundef nonnull %57) #7
  br label %lean_inc.exit

lean_inc.exit:                                    ; preds = %65, %64, %62, %lean_dec.exit24
  br i1 %.not43, label %66, label %lean_dec.exit

66:                                               ; preds = %lean_inc.exit
  %67 = load i32, ptr %7, align 4, !tbaa !4
  %68 = icmp sgt i32 %67, 1
  br i1 %68, label %69, label %71, !prof !11

69:                                               ; preds = %66
  %70 = add nsw i32 %67, -1
  store i32 %70, ptr %7, align 4, !tbaa !4
  br label %lean_dec.exit

71:                                               ; preds = %66
  %.not.i31 = icmp eq i32 %67, 0
  br i1 %.not.i31, label %lean_dec.exit, label %72

72:                                               ; preds = %71
  tail call void @lean_dec_ref_cold(ptr noundef nonnull %7) #7
  br label %lean_dec.exit

lean_dec.exit:                                    ; preds = %72, %71, %69, %lean_inc.exit
  tail call void @lean_inc_heartbeat() #7
  %73 = tail call noalias ptr @mi_malloc_small(i64 noundef 24) #7
  %74 = icmp eq ptr %73, null
  br i1 %74, label %75, label %lean_alloc_ctor.exit

75:                                               ; preds = %lean_dec.exit
  tail call void @lean_internal_panic_out_of_memory() #8
  unreachable

lean_alloc_ctor.exit:                             ; preds = %lean_dec.exit
  %76 = getelementptr inbounds nuw i8, ptr %73, i64 4
  store i32 1, ptr %73, align 4, !tbaa !4
  store i32 131096, ptr %76, align 4
  %77 = getelementptr inbounds nuw i8, ptr %73, i64 8
  store ptr %57, ptr %77, align 8, !tbaa !9
  %78 = getelementptr inbounds nuw i8, ptr %73, i64 16
  store ptr %30, ptr %78, align 8, !tbaa !9
  br label %79

79:                                               ; preds = %lean_alloc_ctor.exit, %lean_dec.exit25
  %.0 = phi ptr [ %4, %lean_dec.exit25 ], [ %73, %lean_alloc_ctor.exit ]
  ret ptr %.0
}